target datalayout = "e-m:e-p270:32:32-p271:32:32-p272:64:64-i64:64-i128:128-f80:128-n8:16:32:64-S128"
target triple = "x86_64-pc-linux-gnu"

@.str.56 = private unnamed_addr constant [4 x i8] c"%lu\00", align 1
@.str.57 = private unnamed_addr constant [13 x i8] c"%lu(path %u)\00", align 1

; Function Attrs: mustprogress nounwind uwtable
define void @_ZN7rocksdb16FormatFileNumberEmjPcm(i64 noundef %0, i32 noundef %1, ptr noundef %2, i64 noundef %3) #3 {
  %5 = alloca i64, align 8
  %6 = alloca i32, align 4
  %7 = alloca ptr, align 8
  %8 = alloca i64, align 8
  store i64 %0, ptr %5, align 8, !tbaa !4
  store i32 %1, ptr %6, align 4, !tbaa !51
  store ptr %2, ptr %7, align 8, !tbaa !31
  store i64 %3, ptr %8, align 8, !tbaa !4
  %9 = load i32, ptr %6, align 4, !tbaa !51
  %10 = icmp eq i32 %9, 0
  br i1 %10, label %11, label %16

11:                                               ; preds = %4
  %12 = load ptr, ptr %7, align 8, !tbaa !31
  %13 = load i64, ptr %8, align 8, !tbaa !4
  %14 = load i64, ptr %5, align 8, !tbaa !4
  %15 = call i32 (ptr, i64, ptr, ...) @snprintf(ptr noundef %12, i64 noundef %13, ptr noundef @.str.56, i64 noundef %14) #4
  br label %22

16:                                               ; preds = %4
  %17 = load ptr, ptr %7, align 8, !tbaa !31
  %18 = load i64, ptr %8, align 8, !tbaa !4
  %19 = load i64, ptr %5, align 8, !tbaa !4
  %20 = load i32, ptr %6, align 4, !tbaa !51
  %21 = call i32 (ptr, i64, ptr, ...) @snprintf(ptr noundef %17, i64 noundef %18, ptr noundef @.str.57, i64 noundef %19, i32 noundef %20) #4
  br label %22

22:                                               ; preds = %16, %11
  ret void
}