; Function Attrs: mustprogress nofree nounwind uwtable
define void @_ZN7rocksdb16FormatFileNumberEmjPcm(i64 noundef %0, i32 noundef %1, ptr noundef writeonly captures(none) %2, i64 noundef %3) local_unnamed_addr #6 {
  %5 = icmp eq i32 %1, 0
  br i1 %5, label %6, label %8

6:                                                ; preds = %4
  %7 = tail call i32 (ptr, i64, ptr, ...) @snprintf(ptr noundef %2, i64 noundef %3, ptr noundef nonnull @.str.56, i64 noundef %0) #25
  br label %10

8:                                                ; preds = %4
  %9 = tail call i32 (ptr, i64, ptr, ...) @snprintf(ptr noundef %2, i64 noundef %3, ptr noundef nonnull @.str.57, i64 noundef %0, i32 noundef %1) #25
  br label %10

10:                                               ; preds = %8, %6
  ret void
}